target datalayout = "e-m:e-p270:32:32-p271:32:32-p272:64:64-i64:64-i128:128-f80:128-n8:16:32:64-S128"
target triple = "x86_64-pc-linux-gnu"

%struct.pg_prng_state = type { i64, i64 }
%struct.PQExpBufferData = type { ptr, i64, i64 }
%struct.CState = type { ptr, i32, i32, ptr, %struct.pg_prng_state, i32, i32, i32, %struct.Variables, i64, i64, i64, i64, ptr, i32, %struct.pg_prng_state, i32, i64 }
%struct.Variables = type { ptr, i32, i32, i8 }
%struct.instr_time = type { i64 }
%struct.timespec = type { i64, i64 }

@.str.8 = private unnamed_addr constant [3 x i8] c"%s\00", align 1
@latency_limit = internal global i64 0, align 8
@max_tries = internal global i32 1, align 4
@printVerboseErrorMessages.buf = internal global ptr null, align 8
@.str.444 = private unnamed_addr constant [11 x i8] c"client %d \00", align 1
@.str.445 = private unnamed_addr constant [40 x i8] c"repeats the transaction after the error\00", align 1
@.str.446 = private unnamed_addr constant [28 x i8] c"ends the failed transaction\00", align 1
@.str.447 = private unnamed_addr constant [9 x i8] c" (try %u\00", align 1
@.str.448 = private unnamed_addr constant [4 x i8] c"/%u\00", align 1
@.str.449 = private unnamed_addr constant [47 x i8] c", %.3f%% of the maximum time of tries was used\00", align 1
@.str.450 = private unnamed_addr constant [3 x i8] c")\0A\00", align 1

; Function Attrs: inlinehint nounwind uwtable
define internal i64 @pg_clock_gettime_ns() #4 {
  %1 = alloca %struct.instr_time, align 8
  %2 = alloca %struct.timespec, align 8
  call void @llvm.lifetime.start.p0(i64 16, ptr %2) #14
  %3 = call i32 @clock_gettime(i32 noundef 1, ptr noundef %2) #14
  %4 = getelementptr inbounds nuw %struct.timespec, ptr %2, i32 0, i32 0
  %5 = load i64, ptr %4, align 8
  %6 = mul i64 %5, 1000000000
  %7 = getelementptr inbounds nuw %struct.timespec, ptr %2, i32 0, i32 1
  %8 = load i64, ptr %7, align 8
  %9 = add i64 %6, %8
  %10 = getelementptr inbounds nuw %struct.instr_time, ptr %1, i32 0, i32 0
  store i64 %9, ptr %10, align 8
  call void @llvm.lifetime.end.p0(i64 16, ptr %2) #14
  %11 = getelementptr inbounds nuw %struct.instr_time, ptr %1, i32 0, i32 0
  %12 = load i64, ptr %11, align 8
  ret i64 %12
}

; Function Attrs: inlinehint nounwind uwtable
define internal i64 @pg_time_now() #4 {
  %1 = alloca %struct.instr_time, align 8
  %2 = alloca %struct.instr_time, align 8
  call void @llvm.lifetime.start.p0(i64 8, ptr %1) #14
  call void @llvm.lifetime.start.p0(i64 8, ptr %2) #14
  %3 = call i64 @pg_clock_gettime_ns()
  %4 = getelementptr inbounds nuw %struct.instr_time, ptr %2, i32 0, i32 0
  store i64 %3, ptr %4, align 8
  call void @llvm.memcpy.p0.p0.i64(ptr align 8 %1, ptr align 8 %2, i64 8, i1 false)
  call void @llvm.lifetime.end.p0(i64 8, ptr %2) #14
  %5 = getelementptr inbounds nuw %struct.instr_time, ptr %1, i32 0, i32 0
  %6 = load i64, ptr %5, align 8
  %7 = sdiv i64 %6, 1000
  call void @llvm.lifetime.end.p0(i64 8, ptr %1) #14
  ret i64 %7
}

; Function Attrs: inlinehint nounwind uwtable
define internal void @pg_time_now_lazy(ptr noundef %0) #4 {
  %2 = alloca ptr, align 8
  store ptr %0, ptr %2, align 8
  %3 = load ptr, ptr %2, align 8
  %4 = load i64, ptr %3, align 8
  %5 = icmp eq i64 %4, 0
  br i1 %5, label %6, label %9

6:                                                ; preds = %1
  %7 = call i64 @pg_time_now()
  %8 = load ptr, ptr %2, align 8
  store i64 %7, ptr %8, align 8
  br label %9

9:                                                ; preds = %6, %1
  ret void
}

; Function Attrs: nounwind uwtable
define internal void @printVerboseErrorMessages(ptr noundef %0, ptr noundef %1, i1 noundef zeroext %2) #0 {
  %4 = alloca ptr, align 8
  %5 = alloca ptr, align 8
  %6 = alloca i8, align 1
  store ptr %0, ptr %4, align 8
  store ptr %1, ptr %5, align 8
  %7 = zext i1 %2 to i8
  store i8 %7, ptr %6, align 1
  %8 = load ptr, ptr @printVerboseErrorMessages.buf, align 8
  %9 = icmp eq ptr %8, null
  br i1 %9, label %10, label %12

10:                                               ; preds = %3
  %11 = call ptr @createPQExpBuffer()
  store ptr %11, ptr @printVerboseErrorMessages.buf, align 8
  br label %14

12:                                               ; preds = %3
  %13 = load ptr, ptr @printVerboseErrorMessages.buf, align 8
  call void @resetPQExpBuffer(ptr noundef %13)
  br label %14

14:                                               ; preds = %12, %10
  %15 = load ptr, ptr @printVerboseErrorMessages.buf, align 8
  %16 = load ptr, ptr %4, align 8
  %17 = getelementptr inbounds nuw %struct.CState, ptr %16, i32 0, i32 1
  %18 = load i32, ptr %17, align 8
  call void (ptr, ptr, ...) @printfPQExpBuffer(ptr noundef %15, ptr noundef @.str.444, i32 noundef %18)
  %19 = load ptr, ptr @printVerboseErrorMessages.buf, align 8
  %20 = load i8, ptr %6, align 1, !range !8, !noundef !9
  %21 = trunc i8 %20 to i1
  %22 = select i1 %21, ptr @.str.445, ptr @.str.446
  call void @appendPQExpBufferStr(ptr noundef %19, ptr noundef %22)
  %23 = load ptr, ptr @printVerboseErrorMessages.buf, align 8
  %24 = load ptr, ptr %4, align 8
  %25 = getelementptr inbounds nuw %struct.CState, ptr %24, i32 0, i32 16
  %26 = load i32, ptr %25, align 8
  call void (ptr, ptr, ...) @appendPQExpBuffer(ptr noundef %23, ptr noundef @.str.447, i32 noundef %26)
  %27 = load i32, ptr @max_tries, align 4
  %28 = icmp ne i32 %27, 0
  br i1 %28, label %29, label %32

29:                                               ; preds = %14
  %30 = load ptr, ptr @printVerboseErrorMessages.buf, align 8
  %31 = load i32, ptr @max_tries, align 4
  call void (ptr, ptr, ...) @appendPQExpBuffer(ptr noundef %30, ptr noundef @.str.448, i32 noundef %31)
  br label %32

32:                                               ; preds = %29, %14
  %33 = load i64, ptr @latency_limit, align 8
  %34 = icmp ne i64 %33, 0
  br i1 %34, label %35, label %49

35:                                               ; preds = %32
  %36 = load ptr, ptr %5, align 8
  call void @pg_time_now_lazy(ptr noundef %36)
  %37 = load ptr, ptr @printVerboseErrorMessages.buf, align 8
  %38 = load ptr, ptr %5, align 8
  %39 = load i64, ptr %38, align 8
  %40 = load ptr, ptr %4, align 8
  %41 = getelementptr inbounds nuw %struct.CState, ptr %40, i32 0, i32 9
  %42 = load i64, ptr %41, align 8
  %43 = sub i64 %39, %42
  %44 = sitofp i64 %43 to double
  %45 = fmul double 1.000000e+02, %44
  %46 = load i64, ptr @latency_limit, align 8
  %47 = sitofp i64 %46 to double
  %48 = fdiv double %45, %47
  call void (ptr, ptr, ...) @appendPQExpBuffer(ptr noundef %37, ptr noundef @.str.449, double noundef %48)
  br label %49

49:                                               ; preds = %35, %32
  %50 = load ptr, ptr @printVerboseErrorMessages.buf, align 8
  call void @appendPQExpBufferStr(ptr noundef %50, ptr noundef @.str.450)
  %51 = load ptr, ptr @printVerboseErrorMessages.buf, align 8
  %52 = getelementptr inbounds nuw %struct.PQExpBufferData, ptr %51, i32 0, i32 0
  %53 = load ptr, ptr %52, align 8
  call void (i32, i32, ptr, ...) @pg_log_generic(i32 noundef 2, i32 noundef 0, ptr noundef @.str.8, ptr noundef %53)
  ret void
}