; Function Attrs: nounwind uwtable
define internal fastcc void @printVerboseErrorMessages(ptr noundef readonly captures(none) %0, ptr noundef nonnull captures(none) %1, i1 noundef zeroext %2) unnamed_addr #0 {
  %4 = alloca %struct.timespec, align 8
  %5 = load ptr, ptr @printVerboseErrorMessages.buf, align 8
  %6 = icmp eq ptr %5, null
  br i1 %6, label %7, label %9

7:                                                ; preds = %3
  %8 = tail call ptr @createPQExpBuffer() #25
  store ptr %8, ptr @printVerboseErrorMessages.buf, align 8
  br label %10

9:                                                ; preds = %3
  tail call void @resetPQExpBuffer(ptr noundef nonnull %5) #25
  %.pre = load ptr, ptr @printVerboseErrorMessages.buf, align 8
  br label %10

10:                                               ; preds = %9, %7
  %11 = phi ptr [ %.pre, %9 ], [ %8, %7 ]
  %12 = getelementptr inbounds nuw i8, ptr %0, i64 8
  %13 = load i32, ptr %12, align 8
  tail call void (ptr, ptr, ...) @printfPQExpBuffer(ptr noundef %11, ptr noundef nonnull @.str.444, i32 noundef %13) #25
  %14 = load ptr, ptr @printVerboseErrorMessages.buf, align 8
  %15 = select i1 %2, ptr @.str.445, ptr @.str.446
  tail call void @appendPQExpBufferStr(ptr noundef %14, ptr noundef nonnull %15) #25
  %16 = load ptr, ptr @printVerboseErrorMessages.buf, align 8
  %17 = getelementptr inbounds nuw i8, ptr %0, i64 144
  %18 = load i32, ptr %17, align 8
  tail call void (ptr, ptr, ...) @appendPQExpBuffer(ptr noundef %16, ptr noundef nonnull @.str.447, i32 noundef %18) #25
  %19 = load i32, ptr @max_tries, align 4
  %.not = icmp eq i32 %19, 0
  br i1 %.not, label %22, label %20

20:                                               ; preds = %10
  %21 = load ptr, ptr @printVerboseErrorMessages.buf, align 8
  tail call void (ptr, ptr, ...) @appendPQExpBuffer(ptr noundef %21, ptr noundef nonnull @.str.448, i32 noundef %19) #25
  br label %22

22:                                               ; preds = %20, %10
  %23 = load i64, ptr @latency_limit, align 8
  %.not6 = icmp eq i64 %23, 0
  br i1 %.not6, label %45, label %24

24:                                               ; preds = %22
  %25 = load i64, ptr %1, align 8
  %26 = icmp eq i64 %25, 0
  br i1 %26, label %27, label %pg_time_now_lazy.exit

27:                                               ; preds = %24
  call void @llvm.lifetime.start.p0(i64 16, ptr nonnull %4) #25
  %28 = call i32 @clock_gettime(i32 noundef 1, ptr noundef nonnull %4) #25
  %29 = load i64, ptr %4, align 8
  %30 = mul i64 %29, 1000000000
  %31 = getelementptr inbounds nuw i8, ptr %4, i64 8
  %32 = load i64, ptr %31, align 8
  %33 = add i64 %30, %32
  call void @llvm.lifetime.end.p0(i64 16, ptr nonnull %4) #25
  %34 = sdiv i64 %33, 1000
  store i64 %34, ptr %1, align 8
  %.pre7 = load i64, ptr @latency_limit, align 8
  br label %pg_time_now_lazy.exit

pg_time_now_lazy.exit:                            ; preds = %24, %27
  %35 = phi i64 [ %23, %24 ], [ %.pre7, %27 ]
  %36 = phi i64 [ %25, %24 ], [ %34, %27 ]
  %37 = load ptr, ptr @printVerboseErrorMessages.buf, align 8
  %38 = getelementptr inbounds nuw i8, ptr %0, i64 80
  %39 = load i64, ptr %38, align 8
  %40 = sub i64 %36, %39
  %41 = sitofp i64 %40 to double
  %42 = fmul double %41, 1.000000e+02
  %43 = sitofp i64 %35 to double
  %44 = fdiv double %42, %43
  call void (ptr, ptr, ...) @appendPQExpBuffer(ptr noundef %37, ptr noundef nonnull @.str.449, double noundef %44) #25
  br label %45

45:                                               ; preds = %pg_time_now_lazy.exit, %22
  %46 = load ptr, ptr @printVerboseErrorMessages.buf, align 8
  call void @appendPQExpBufferStr(ptr noundef %46, ptr noundef nonnull @.str.450) #25
  %47 = load ptr, ptr @printVerboseErrorMessages.buf, align 8
  %48 = load ptr, ptr %47, align 8
  call void (i32, i32, ptr, ...) @pg_log_generic(i32 noundef 2, i32 noundef 0, ptr noundef nonnull @.str.8, ptr noundef %48) #25
  ret void
}